; Function Attrs: mustprogress nounwind uwtable
define noundef range(i32 -1, -2147483648) i32 @_ZN7xgboost6common16GetCGroupV1CountERKNSt10filesystem7__cxx114pathES5_(ptr noundef nonnull readonly align 8 captures(none) dereferenceable(40) %0, ptr noundef nonnull readonly align 8 captures(none) dereferenceable(40) %1) local_unnamed_addr #3 {
  %3 = load ptr, ptr %0, align 8, !tbaa !3
  %4 = tail call fastcc noundef i32 @"_ZZN7xgboost6common16GetCGroupV1CountERKNSt10filesystem7__cxx114pathES5_ENK3$_0clEPKc"(ptr noundef %3) #23
  %5 = load ptr, ptr %1, align 8, !tbaa !3
  %6 = tail call fastcc noundef i32 @"_ZZN7xgboost6common16GetCGroupV1CountERKNSt10filesystem7__cxx114pathES5_ENK3$_0clEPKc"(ptr noundef %5) #23
  %7 = icmp sgt i32 %4, 0
  %8 = icmp sgt i32 %6, 0
  %or.cond = and i1 %7, %8
  br i1 %or.cond, label %9, label %12

9:                                                ; preds = %2
  %10 = udiv i32 %4, %6
  %11 = icmp samesign ugt i32 %6, %4
  %.sroa.speculated = select i1 %11, i32 1, i32 %10
  br label %12

12:                                               ; preds = %2, %9
  %.0 = phi i32 [ %.sroa.speculated, %9 ], [ -1, %2 ]
  ret i32 %.0
}